target datalayout = "e-m:e-p270:32:32-p271:32:32-p272:64:64-i64:64-i128:128-f80:128-n8:16:32:64-S128"
target triple = "x86_64-pc-linux-gnu"

%"union.llvm::object::DataRefImpl" = type { i64 }
%"class.llvm::Expected" = type { %union.anon, i8, [7 x i8] }
%union.anon = type { %"struct.llvm::AlignedCharArrayUnion" }
%"struct.llvm::AlignedCharArrayUnion" = type { [16 x i8] }
%"class.llvm::object::SectionRef" = type { %"union.llvm::object::DataRefImpl", ptr }
%"class.llvm::object::content_iterator" = type { %"class.llvm::object::SectionRef" }

; Function Attrs: mustprogress nounwind uwtable
define linkonce_odr hidden noundef ptr @_ZN4llvm8ExpectedINS_6object16content_iteratorINS1_10SectionRefEEEE10getStorageEv(ptr noundef nonnull align 8 dereferenceable(17) %0) #0 comdat align 2 {
  %2 = alloca ptr, align 8
  store ptr %0, ptr %2, align 8
  %3 = load ptr, ptr %2, align 8
  %4 = getelementptr inbounds nuw %"class.llvm::Expected", ptr %3, i32 0, i32 0
  ret ptr %4
}

; Function Attrs: mustprogress nounwind uwtable
define linkonce_odr hidden void @_ZN4llvm8ExpectedINS_6object16content_iteratorINS1_10SectionRefEEEEC2IS4_EEOT_PNSt9enable_ifIXsr3stdE16is_convertible_vIS7_S4_EEvE4typeE(ptr noundef nonnull align 8 dereferenceable(17) %0, ptr noundef nonnull align 8 dereferenceable(16) %1, ptr noundef %2) unnamed_addr #0 comdat align 2 {
  %4 = alloca ptr, align 8
  %5 = alloca ptr, align 8
  %6 = alloca ptr, align 8
  store ptr %0, ptr %4, align 8
  store ptr %1, ptr %5, align 8
  store ptr %2, ptr %6, align 8
  %7 = load ptr, ptr %4, align 8
  %8 = getelementptr inbounds nuw %"class.llvm::Expected", ptr %7, i32 0, i32 1
  %9 = load i8, ptr %8, align 8
  %10 = and i8 %9, -2
  %11 = or i8 %10, 0
  store i8 %11, ptr %8, align 8
  %12 = call noundef ptr @_ZN4llvm8ExpectedINS_6object16content_iteratorINS1_10SectionRefEEEE10getStorageEv(ptr noundef nonnull align 8 dereferenceable(17) %7)
  %13 = load ptr, ptr %5, align 8
  call void @llvm.memcpy.p0.p0.i64(ptr align 8 %12, ptr align 8 %13, i64 16, i1 false)
  ret void
}

; Function Attrs: mustprogress nounwind uwtable
define linkonce_odr hidden void @_ZN4llvm6object16content_iteratorINS0_10SectionRefEEC2ES2_(ptr noundef nonnull align 8 dereferenceable(16) %0, i64 %1, ptr %2) unnamed_addr #0 comdat align 2 {
  %4 = alloca %"class.llvm::object::SectionRef", align 8
  %5 = alloca ptr, align 8
  %6 = getelementptr inbounds nuw { i64, ptr }, ptr %4, i32 0, i32 0
  store i64 %1, ptr %6, align 8
  %7 = getelementptr inbounds nuw { i64, ptr }, ptr %4, i32 0, i32 1
  store ptr %2, ptr %7, align 8
  store ptr %0, ptr %5, align 8
  %8 = load ptr, ptr %5, align 8
  %9 = getelementptr inbounds nuw %"class.llvm::object::content_iterator", ptr %8, i32 0, i32 0
  call void @llvm.memcpy.p0.p0.i64(ptr align 8 %9, ptr align 8 %4, i64 16, i1 false)
  ret void
}

; Function Attrs: mustprogress nounwind uwtable
define linkonce_odr hidden void @_ZN4llvm6object10SectionRefC2ENS0_11DataRefImplEPKNS0_10ObjectFileE(ptr noundef nonnull align 8 dereferenceable(16) %0, i64 %1, ptr noundef %2) unnamed_addr #0 comdat align 2 {
  %4 = alloca %"union.llvm::object::DataRefImpl", align 8
  %5 = alloca ptr, align 8
  %6 = alloca ptr, align 8
  %7 = getelementptr inbounds nuw %"union.llvm::object::DataRefImpl", ptr %4, i32 0, i32 0
  store i64 %1, ptr %7, align 8
  store ptr %0, ptr %5, align 8
  store ptr %2, ptr %6, align 8
  %8 = load ptr, ptr %5, align 8
  %9 = getelementptr inbounds nuw %"class.llvm::object::SectionRef", ptr %8, i32 0, i32 0
  call void @llvm.memcpy.p0.p0.i64(ptr align 8 %9, ptr align 8 %4, i64 8, i1 false)
  %10 = getelementptr inbounds nuw %"class.llvm::object::SectionRef", ptr %8, i32 0, i32 1
  %11 = load ptr, ptr %6, align 8
  store ptr %11, ptr %10, align 8
  ret void
}

; Function Attrs: mustprogress nounwind uwtable
define dso_local void @_ZNK4llvm6object10ObjectFile19getRelocatedSectionENS0_11DataRefImplE(ptr dead_on_unwind noalias writable sret(%"class.llvm::Expected") align 8 %0, ptr noundef nonnull align 8 dereferenceable(48) %1, i64 %2) unnamed_addr #0 align 2 {
  %4 = alloca ptr, align 8
  %5 = alloca %"union.llvm::object::DataRefImpl", align 8
  %6 = alloca ptr, align 8
  %7 = alloca %"class.llvm::object::content_iterator", align 8
  %8 = alloca %"class.llvm::object::SectionRef", align 8
  %9 = alloca %"union.llvm::object::DataRefImpl", align 8
  store ptr %0, ptr %4, align 8
  %10 = getelementptr inbounds nuw %"union.llvm::object::DataRefImpl", ptr %5, i32 0, i32 0
  store i64 %2, ptr %10, align 8
  store ptr %1, ptr %6, align 8
  %11 = load ptr, ptr %6, align 8
  call void @llvm.memcpy.p0.p0.i64(ptr align 8 %9, ptr align 8 %5, i64 8, i1 false)
  %12 = getelementptr inbounds nuw %"union.llvm::object::DataRefImpl", ptr %9, i32 0, i32 0
  %13 = load i64, ptr %12, align 8
  call void @_ZN4llvm6object10SectionRefC2ENS0_11DataRefImplEPKNS0_10ObjectFileE(ptr noundef nonnull align 8 dereferenceable(16) %8, i64 %13, ptr noundef %11)
  %14 = getelementptr inbounds nuw { i64, ptr }, ptr %8, i32 0, i32 0
  %15 = load i64, ptr %14, align 8
  %16 = getelementptr inbounds nuw { i64, ptr }, ptr %8, i32 0, i32 1
  %17 = load ptr, ptr %16, align 8
  call void @_ZN4llvm6object16content_iteratorINS0_10SectionRefEEC2ES2_(ptr noundef nonnull align 8 dereferenceable(16) %7, i64 %15, ptr %17)
  call void @_ZN4llvm8ExpectedINS_6object16content_iteratorINS1_10SectionRefEEEEC2IS4_EEOT_PNSt9enable_ifIXsr3stdE16is_convertible_vIS7_S4_EEvE4typeE(ptr noundef nonnull align 8 dereferenceable(17) %0, ptr noundef nonnull align 8 dereferenceable(16) %7, ptr noundef null)
  ret void
}