; Function Attrs: mustprogress nofree norecurse nosync nounwind willreturn memory(argmem: readwrite) uwtable
define dso_local void @_ZNK4llvm6object10ObjectFile19getRelocatedSectionENS0_11DataRefImplE(ptr dead_on_unwind noalias writable sret(%"class.llvm::Expected") align 8 captures(none) initializes((0, 16)) %0, ptr noundef nonnull align 8 dereferenceable(48) %1, i64 %2) unnamed_addr #4 align 2 {
  %4 = getelementptr inbounds nuw i8, ptr %0, i64 16
  %5 = load i8, ptr %4, align 8
  %6 = and i8 %5, -2
  store i8 %6, ptr %4, align 8
  store i64 %2, ptr %0, align 8
  %.sroa.23.0..sroa_idx = getelementptr inbounds nuw i8, ptr %0, i64 8
  store ptr %1, ptr %.sroa.23.0..sroa_idx, align 8
  ret void
}